target datalayout = "e-m:e-p270:32:32-p271:32:32-p272:64:64-i64:64-i128:128-f80:128-n8:16:32:64-S128"
target triple = "x86_64-pc-linux-gnu"

%struct.GCRef = type { i64 }
%struct.CType = type { i32, i32, i16, i16, %struct.GCRef }
%struct.CTState = type { ptr, i32, i32, ptr, ptr, ptr, %struct.CCallback, [128 x i16] }
%struct.CCallback = type { [8 x %union.FPRCBArg], [8 x i64], ptr, ptr, ptr, i32, i32, i32 }
%union.FPRCBArg = type { double }

; Function Attrs: alwaysinline nounwind uwtable
define internal i32 @ctype_check(ptr noundef %0, i32 noundef %1) #2 {
  %3 = alloca ptr, align 8
  %4 = alloca i32, align 4
  store ptr %0, ptr %3, align 8, !tbaa !4
  store i32 %1, ptr %4, align 4, !tbaa !12
  %5 = load i32, ptr %4, align 4, !tbaa !12
  ret i32 %5
}

; Function Attrs: alwaysinline nounwind uwtable
define internal ptr @ctype_get(ptr noundef %0, i32 noundef %1) #2 {
  %3 = alloca ptr, align 8
  %4 = alloca i32, align 4
  store ptr %0, ptr %3, align 8, !tbaa !4
  store i32 %1, ptr %4, align 4, !tbaa !12
  %5 = load ptr, ptr %3, align 8, !tbaa !4
  %6 = getelementptr inbounds nuw %struct.CTState, ptr %5, i32 0, i32 0
  %7 = load ptr, ptr %6, align 8, !tbaa !22
  %8 = load ptr, ptr %3, align 8, !tbaa !4
  %9 = load i32, ptr %4, align 4, !tbaa !12
  %10 = call i32 @ctype_check(ptr noundef %8, i32 noundef %9)
  %11 = zext i32 %10 to i64
  %12 = getelementptr inbounds nuw %struct.CType, ptr %7, i64 %11
  ret ptr %12
}

; Function Attrs: alwaysinline nounwind uwtable
define internal ptr @ctype_child(ptr noundef %0, ptr noundef %1) #2 {
  %3 = alloca ptr, align 8
  %4 = alloca ptr, align 8
  store ptr %0, ptr %3, align 8, !tbaa !4
  store ptr %1, ptr %4, align 8, !tbaa !14
  %5 = load ptr, ptr %3, align 8, !tbaa !4
  %6 = load ptr, ptr %4, align 8, !tbaa !14
  %7 = getelementptr inbounds nuw %struct.CType, ptr %6, i32 0, i32 0
  %8 = load i32, ptr %7, align 8, !tbaa !16
  %9 = and i32 %8, 65535
  %10 = call ptr @ctype_get(ptr noundef %5, i32 noundef %9)
  ret ptr %10
}

; Function Attrs: alwaysinline nounwind uwtable
define internal ptr @ctype_rawchild(ptr noundef %0, ptr noundef %1) #2 {
  %3 = alloca ptr, align 8
  %4 = alloca ptr, align 8
  store ptr %0, ptr %3, align 8, !tbaa !4
  store ptr %1, ptr %4, align 8, !tbaa !14
  br label %5

5:                                                ; preds = %9, %2
  %6 = load ptr, ptr %3, align 8, !tbaa !4
  %7 = load ptr, ptr %4, align 8, !tbaa !14
  %8 = call ptr @ctype_child(ptr noundef %6, ptr noundef %7)
  store ptr %8, ptr %4, align 8, !tbaa !14
  br label %9

9:                                                ; preds = %5
  %10 = load ptr, ptr %4, align 8, !tbaa !14
  %11 = getelementptr inbounds nuw %struct.CType, ptr %10, i32 0, i32 0
  %12 = load i32, ptr %11, align 8, !tbaa !16
  %13 = lshr i32 %12, 28
  %14 = icmp eq i32 %13, 8
  br i1 %14, label %5, label %15, !llvm.loop !59

15:                                               ; preds = %9
  %16 = load ptr, ptr %4, align 8, !tbaa !14
  ret ptr %16
}

; Function Attrs: nounwind uwtable
define internal void @ccall_classify_ct(ptr noundef %0, ptr noundef %1, ptr noundef %2, i32 noundef %3) #0 {
  %5 = alloca ptr, align 8
  %6 = alloca ptr, align 8
  %7 = alloca ptr, align 8
  %8 = alloca i32, align 4
  %9 = alloca ptr, align 8
  %10 = alloca i32, align 4
  %11 = alloca i32, align 4
  %12 = alloca i32, align 4
  %13 = alloca i32, align 4
  store ptr %0, ptr %5, align 8, !tbaa !4
  store ptr %1, ptr %6, align 8, !tbaa !14
  store ptr %2, ptr %7, align 8, !tbaa !75
  store i32 %3, ptr %8, align 4, !tbaa !12
  %14 = load ptr, ptr %6, align 8, !tbaa !14
  %15 = getelementptr inbounds nuw %struct.CType, ptr %14, i32 0, i32 0
  %16 = load i32, ptr %15, align 8, !tbaa !16
  %17 = lshr i32 %16, 28
  %18 = icmp eq i32 %17, 3
  br i1 %18, label %19, label %45

19:                                               ; preds = %4
  call void @llvm.lifetime.start.p0(i64 8, ptr %9) #8
  %20 = load ptr, ptr %5, align 8, !tbaa !4
  %21 = load ptr, ptr %6, align 8, !tbaa !14
  %22 = call ptr @ctype_rawchild(ptr noundef %20, ptr noundef %21)
  store ptr %22, ptr %9, align 8, !tbaa !14
  call void @llvm.lifetime.start.p0(i64 4, ptr %10) #8
  call void @llvm.lifetime.start.p0(i64 4, ptr %11) #8
  %23 = load ptr, ptr %9, align 8, !tbaa !14
  %24 = getelementptr inbounds nuw %struct.CType, ptr %23, i32 0, i32 1
  %25 = load i32, ptr %24, align 4, !tbaa !21
  store i32 %25, ptr %11, align 4, !tbaa !12
  call void @llvm.lifetime.start.p0(i64 4, ptr %12) #8
  %26 = load ptr, ptr %6, align 8, !tbaa !14
  %27 = getelementptr inbounds nuw %struct.CType, ptr %26, i32 0, i32 1
  %28 = load i32, ptr %27, align 4, !tbaa !21
  store i32 %28, ptr %12, align 4, !tbaa !12
  store i32 0, ptr %10, align 4, !tbaa !12
  br label %29

29:                                               ; preds = %40, %19
  %30 = load i32, ptr %10, align 4, !tbaa !12
  %31 = load i32, ptr %12, align 4, !tbaa !12
  %32 = icmp ult i32 %30, %31
  br i1 %32, label %33, label %44

33:                                               ; preds = %29
  %34 = load ptr, ptr %5, align 8, !tbaa !4
  %35 = load ptr, ptr %9, align 8, !tbaa !14
  %36 = load ptr, ptr %7, align 8, !tbaa !75
  %37 = load i32, ptr %8, align 4, !tbaa !12
  %38 = load i32, ptr %10, align 4, !tbaa !12
  %39 = add i32 %37, %38
  call void @ccall_classify_ct(ptr noundef %34, ptr noundef %35, ptr noundef %36, i32 noundef %39)
  br label %40

40:                                               ; preds = %33
  %41 = load i32, ptr %11, align 4, !tbaa !12
  %42 = load i32, ptr %10, align 4, !tbaa !12
  %43 = add i32 %42, %41
  store i32 %43, ptr %10, align 4, !tbaa !12
  br label %29, !llvm.loop !82

44:                                               ; preds = %29
  call void @llvm.lifetime.end.p0(i64 4, ptr %12) #8
  call void @llvm.lifetime.end.p0(i64 4, ptr %11) #8
  call void @llvm.lifetime.end.p0(i64 4, ptr %10) #8
  call void @llvm.lifetime.end.p0(i64 8, ptr %9) #8
  br label %83

45:                                               ; preds = %4
  %46 = load ptr, ptr %6, align 8, !tbaa !14
  %47 = getelementptr inbounds nuw %struct.CType, ptr %46, i32 0, i32 0
  %48 = load i32, ptr %47, align 8, !tbaa !16
  %49 = lshr i32 %48, 28
  %50 = icmp eq i32 %49, 1
  br i1 %50, label %51, label %57

51:                                               ; preds = %45
  %52 = load ptr, ptr %5, align 8, !tbaa !4
  %53 = load ptr, ptr %6, align 8, !tbaa !14
  %54 = load ptr, ptr %7, align 8, !tbaa !75
  %55 = load i32, ptr %8, align 4, !tbaa !12
  %56 = call i32 @ccall_classify_struct(ptr noundef %52, ptr noundef %53, ptr noundef %54, i32 noundef %55)
  br label %82

57:                                               ; preds = %45
  call void @llvm.lifetime.start.p0(i64 4, ptr %13) #8
  %58 = load ptr, ptr %6, align 8, !tbaa !14
  %59 = getelementptr inbounds nuw %struct.CType, ptr %58, i32 0, i32 0
  %60 = load i32, ptr %59, align 8, !tbaa !16
  %61 = and i32 %60, -201326592
  %62 = icmp eq i32 %61, 67108864
  %63 = select i1 %62, i32 2, i32 1
  store i32 %63, ptr %13, align 4, !tbaa !12
  %64 = load i32, ptr %8, align 4, !tbaa !12
  %65 = load ptr, ptr %6, align 8, !tbaa !14
  %66 = getelementptr inbounds nuw %struct.CType, ptr %65, i32 0, i32 1
  %67 = load i32, ptr %66, align 4, !tbaa !21
  %68 = sub i32 %67, 1
  %69 = and i32 %64, %68
  %70 = icmp ne i32 %69, 0
  br i1 %70, label %71, label %72

71:                                               ; preds = %57
  store i32 4, ptr %13, align 4, !tbaa !12
  br label %72

72:                                               ; preds = %71, %57
  %73 = load i32, ptr %13, align 4, !tbaa !12
  %74 = load ptr, ptr %7, align 8, !tbaa !75
  %75 = load i32, ptr %8, align 4, !tbaa !12
  %76 = icmp uge i32 %75, 8
  %77 = zext i1 %76 to i32
  %78 = sext i32 %77 to i64
  %79 = getelementptr inbounds i32, ptr %74, i64 %78
  %80 = load i32, ptr %79, align 4, !tbaa !12
  %81 = or i32 %80, %73
  store i32 %81, ptr %79, align 4, !tbaa !12
  call void @llvm.lifetime.end.p0(i64 4, ptr %13) #8
  br label %82

82:                                               ; preds = %72, %51
  br label %83

83:                                               ; preds = %82, %44
  ret void
}