; Function Attrs: nofree nosync nounwind memory(readwrite, inaccessiblemem: none) uwtable
define internal fastcc void @ccall_classify_ct(ptr noundef readonly captures(none) %0, ptr noundef readonly captures(none) %1, ptr noundef nonnull captures(none) %2, i32 noundef %3) unnamed_addr #4 {
  %5 = load i32, ptr %1, align 8, !tbaa !18
  %6 = lshr i32 %5, 28
  switch i32 %6, label %24 [
    i32 3, label %.preheader
    i32 1, label %22
  ]

.preheader:                                       ; preds = %4
  %7 = load ptr, ptr %0, align 8, !tbaa !7
  br label %8

8:                                                ; preds = %.preheader, %8
  %9 = phi i32 [ %13, %8 ], [ %5, %.preheader ]
  %10 = and i32 %9, 65535
  %11 = zext nneg i32 %10 to i64
  %12 = getelementptr inbounds nuw %struct.CType, ptr %7, i64 %11
  %13 = load i32, ptr %12, align 8, !tbaa !18
  %14 = icmp slt i32 %13, -1879048192
  br i1 %14, label %8, label %ctype_rawchild.exit, !llvm.loop !44

ctype_rawchild.exit:                              ; preds = %8
  %15 = getelementptr inbounds nuw i8, ptr %12, i64 4
  %16 = load i32, ptr %15, align 4, !tbaa !23
  %17 = getelementptr inbounds nuw i8, ptr %1, i64 4
  %18 = load i32, ptr %17, align 4, !tbaa !23
  %.not26 = icmp eq i32 %18, 0
  br i1 %.not26, label %.loopexit, label %.lr.ph

.lr.ph:                                           ; preds = %ctype_rawchild.exit, %.lr.ph
  %.025 = phi i32 [ %20, %.lr.ph ], [ 0, %ctype_rawchild.exit ]
  %19 = add i32 %.025, %3
  tail call fastcc void @ccall_classify_ct(ptr noundef nonnull %0, ptr noundef nonnull %12, ptr noundef %2, i32 noundef %19)
  %20 = add i32 %.025, %16
  %21 = icmp ult i32 %20, %18
  br i1 %21, label %.lr.ph, label %.loopexit, !llvm.loop !70

22:                                               ; preds = %4
  %23 = tail call fastcc i32 @ccall_classify_struct(ptr noundef %0, ptr noundef nonnull %1, ptr noundef %2, i32 noundef %3)
  br label %.loopexit

24:                                               ; preds = %4
  %25 = and i32 %5, -201326592
  %26 = icmp eq i32 %25, 67108864
  %27 = select i1 %26, i32 2, i32 1
  %28 = getelementptr inbounds nuw i8, ptr %1, i64 4
  %29 = load i32, ptr %28, align 4, !tbaa !23
  %30 = add i32 %29, -1
  %31 = and i32 %30, %3
  %.not = icmp eq i32 %31, 0
  %spec.store.select = select i1 %.not, i32 %27, i32 4
  %32 = icmp ugt i32 %3, 7
  %33 = zext i1 %32 to i64
  %34 = getelementptr inbounds nuw i32, ptr %2, i64 %33
  %35 = load i32, ptr %34, align 4, !tbaa !45
  %36 = or i32 %spec.store.select, %35
  store i32 %36, ptr %34, align 4, !tbaa !45
  br label %.loopexit

.loopexit:                                        ; preds = %.lr.ph, %ctype_rawchild.exit, %22, %24
  ret void
}